target datalayout = "e-m:e-p270:32:32-p271:32:32-p272:64:64-i64:64-i128:128-f80:128-n8:16:32:64-S128"
target triple = "x86_64-pc-linux-gnu"

%struct.function_st = type { i32, ptr, ptr, ptr, ptr, ptr }
%struct.DISPLAY_COLUMNS = type { i32, i32 }

@bio_out = external global ptr, align 8
@.str.83 = private unnamed_addr constant [2 x i8] c"\0A\00", align 1
@functions = external global [0 x %struct.function_st], align 8
@.str.96 = private unnamed_addr constant [4 x i8] c"%s\0A\00", align 1
@.str.97 = private unnamed_addr constant [5 x i8] c"%-*s\00", align 1
@.str.98 = private unnamed_addr constant [3 x i8] c"\0A\0A\00", align 1

; Function Attrs: nounwind uwtable
define internal i32 @is_md_available(ptr noundef %0) #0 {
  %2 = alloca i32, align 4
  %3 = alloca ptr, align 8
  %4 = alloca ptr, align 8
  %5 = alloca ptr, align 8
  %6 = alloca i32, align 4
  store ptr %0, ptr %3, align 8, !tbaa !11
  call void @llvm.lifetime.start.p0(i64 8, ptr %4) #7
  call void @llvm.lifetime.start.p0(i64 8, ptr %5) #7
  %7 = call ptr @app_get0_propq()
  store ptr %7, ptr %5, align 8, !tbaa !11
  %8 = call i32 @ERR_set_mark()
  %9 = call ptr @app_get0_libctx()
  %10 = load ptr, ptr %3, align 8, !tbaa !11
  %11 = load ptr, ptr %5, align 8, !tbaa !11
  %12 = call ptr @EVP_MD_fetch(ptr noundef %9, ptr noundef %10, ptr noundef %11)
  store ptr %12, ptr %4, align 8, !tbaa !37
  %13 = call i32 @ERR_pop_to_mark()
  %14 = load ptr, ptr %4, align 8, !tbaa !37
  %15 = icmp ne ptr %14, null
  br i1 %15, label %16, label %18

16:                                               ; preds = %1
  %17 = load ptr, ptr %4, align 8, !tbaa !37
  call void @EVP_MD_free(ptr noundef %17)
  store i32 1, ptr %2, align 4
  store i32 1, ptr %6, align 4
  br label %28

18:                                               ; preds = %1
  %19 = load ptr, ptr %5, align 8, !tbaa !11
  %20 = icmp ne ptr %19, null
  br i1 %20, label %25, label %21

21:                                               ; preds = %18
  %22 = load ptr, ptr %3, align 8, !tbaa !11
  %23 = call ptr @get_digest_from_engine(ptr noundef %22)
  %24 = icmp eq ptr %23, null
  br label %25

25:                                               ; preds = %21, %18
  %26 = phi i1 [ true, %18 ], [ %24, %21 ]
  %27 = select i1 %26, i32 0, i32 1
  store i32 %27, ptr %2, align 4
  store i32 1, ptr %6, align 4
  br label %28

28:                                               ; preds = %25, %16
  call void @llvm.lifetime.end.p0(i64 8, ptr %5) #7
  call void @llvm.lifetime.end.p0(i64 8, ptr %4) #7
  %29 = load i32, ptr %2, align 4
  ret i32 %29
}

; Function Attrs: nounwind uwtable
define internal i32 @is_cipher_available(ptr noundef %0) #0 {
  %2 = alloca i32, align 4
  %3 = alloca ptr, align 8
  %4 = alloca ptr, align 8
  %5 = alloca ptr, align 8
  %6 = alloca i32, align 4
  store ptr %0, ptr %3, align 8, !tbaa !11
  call void @llvm.lifetime.start.p0(i64 8, ptr %4) #7
  call void @llvm.lifetime.start.p0(i64 8, ptr %5) #7
  %7 = call ptr @app_get0_propq()
  store ptr %7, ptr %5, align 8, !tbaa !11
  %8 = call i32 @ERR_set_mark()
  %9 = call ptr @app_get0_libctx()
  %10 = load ptr, ptr %3, align 8, !tbaa !11
  %11 = load ptr, ptr %5, align 8, !tbaa !11
  %12 = call ptr @EVP_CIPHER_fetch(ptr noundef %9, ptr noundef %10, ptr noundef %11)
  store ptr %12, ptr %4, align 8, !tbaa !44
  %13 = call i32 @ERR_pop_to_mark()
  %14 = load ptr, ptr %4, align 8, !tbaa !44
  %15 = icmp ne ptr %14, null
  br i1 %15, label %16, label %18

16:                                               ; preds = %1
  %17 = load ptr, ptr %4, align 8, !tbaa !44
  call void @EVP_CIPHER_free(ptr noundef %17)
  store i32 1, ptr %2, align 4
  store i32 1, ptr %6, align 4
  br label %28

18:                                               ; preds = %1
  %19 = load ptr, ptr %5, align 8, !tbaa !11
  %20 = icmp ne ptr %19, null
  br i1 %20, label %25, label %21

21:                                               ; preds = %18
  %22 = load ptr, ptr %3, align 8, !tbaa !11
  %23 = call ptr @get_cipher_from_engine(ptr noundef %22)
  %24 = icmp eq ptr %23, null
  br label %25

25:                                               ; preds = %21, %18
  %26 = phi i1 [ true, %18 ], [ %24, %21 ]
  %27 = select i1 %26, i32 0, i32 1
  store i32 %27, ptr %2, align 4
  store i32 1, ptr %6, align 4
  br label %28

28:                                               ; preds = %25, %16
  call void @llvm.lifetime.end.p0(i64 8, ptr %5) #7
  call void @llvm.lifetime.end.p0(i64 8, ptr %4) #7
  %29 = load i32, ptr %2, align 4
  ret i32 %29
}

; Function Attrs: nounwind uwtable
define internal void @list_type(i32 noundef %0, i32 noundef %1) #0 {
  %3 = alloca i32, align 4
  %4 = alloca i32, align 4
  %5 = alloca ptr, align 8
  %6 = alloca i32, align 4
  %7 = alloca %struct.DISPLAY_COLUMNS, align 4
  store i32 %0, ptr %3, align 4, !tbaa !4
  store i32 %1, ptr %4, align 4, !tbaa !4
  call void @llvm.lifetime.start.p0(i64 8, ptr %5) #7
  call void @llvm.lifetime.start.p0(i64 4, ptr %6) #7
  store i32 0, ptr %6, align 4, !tbaa !4
  call void @llvm.lifetime.start.p0(i64 8, ptr %7) #7
  call void @llvm.memset.p0.i64(ptr align 4 %7, i8 0, i64 8, i1 false)
  %8 = load i32, ptr %4, align 4, !tbaa !4
  %9 = icmp ne i32 %8, 0
  br i1 %9, label %11, label %10

10:                                               ; preds = %2
  call void @calculate_columns(ptr noundef @functions, ptr noundef %7)
  br label %11

11:                                               ; preds = %10, %2
  store ptr @functions, ptr %5, align 8, !tbaa !17
  br label %12

12:                                               ; preds = %75, %11
  %13 = load ptr, ptr %5, align 8, !tbaa !17
  %14 = getelementptr inbounds nuw %struct.function_st, ptr %13, i32 0, i32 1
  %15 = load ptr, ptr %14, align 8, !tbaa !19
  %16 = icmp ne ptr %15, null
  br i1 %16, label %17, label %78

17:                                               ; preds = %12
  %18 = load ptr, ptr %5, align 8, !tbaa !17
  %19 = getelementptr inbounds nuw %struct.function_st, ptr %18, i32 0, i32 0
  %20 = load i32, ptr %19, align 8, !tbaa !30
  %21 = load i32, ptr %3, align 4, !tbaa !4
  %22 = icmp ne i32 %20, %21
  br i1 %22, label %23, label %24

23:                                               ; preds = %17
  br label %75

24:                                               ; preds = %17
  %25 = load i32, ptr %3, align 4, !tbaa !4
  switch i32 %25, label %42 [
    i32 3, label %26
    i32 2, label %34
  ]

26:                                               ; preds = %24
  %27 = load ptr, ptr %5, align 8, !tbaa !17
  %28 = getelementptr inbounds nuw %struct.function_st, ptr %27, i32 0, i32 1
  %29 = load ptr, ptr %28, align 8, !tbaa !19
  %30 = call i32 @is_cipher_available(ptr noundef %29)
  %31 = icmp ne i32 %30, 0
  br i1 %31, label %33, label %32

32:                                               ; preds = %26
  br label %75

33:                                               ; preds = %26
  br label %43

34:                                               ; preds = %24
  %35 = load ptr, ptr %5, align 8, !tbaa !17
  %36 = getelementptr inbounds nuw %struct.function_st, ptr %35, i32 0, i32 1
  %37 = load ptr, ptr %36, align 8, !tbaa !19
  %38 = call i32 @is_md_available(ptr noundef %37)
  %39 = icmp ne i32 %38, 0
  br i1 %39, label %41, label %40

40:                                               ; preds = %34
  br label %75

41:                                               ; preds = %34
  br label %43

42:                                               ; preds = %24
  br label %43

43:                                               ; preds = %42, %41, %33
  %44 = load i32, ptr %4, align 4, !tbaa !4
  %45 = icmp ne i32 %44, 0
  br i1 %45, label %46, label %52

46:                                               ; preds = %43
  %47 = load ptr, ptr @bio_out, align 8, !tbaa !13
  %48 = load ptr, ptr %5, align 8, !tbaa !17
  %49 = getelementptr inbounds nuw %struct.function_st, ptr %48, i32 0, i32 1
  %50 = load ptr, ptr %49, align 8, !tbaa !19
  %51 = call i32 (ptr, ptr, ...) @BIO_printf(ptr noundef %47, ptr noundef @.str.96, ptr noundef %50)
  br label %74

52:                                               ; preds = %43
  %53 = load i32, ptr %6, align 4, !tbaa !4
  %54 = getelementptr inbounds nuw %struct.DISPLAY_COLUMNS, ptr %7, i32 0, i32 0
  %55 = load i32, ptr %54, align 4, !tbaa !31
  %56 = srem i32 %53, %55
  %57 = icmp eq i32 %56, 0
  br i1 %57, label %58, label %64

58:                                               ; preds = %52
  %59 = load i32, ptr %6, align 4, !tbaa !4
  %60 = icmp sgt i32 %59, 0
  br i1 %60, label %61, label %64

61:                                               ; preds = %58
  %62 = load ptr, ptr @bio_out, align 8, !tbaa !13
  %63 = call i32 (ptr, ptr, ...) @BIO_printf(ptr noundef %62, ptr noundef @.str.83)
  br label %64

64:                                               ; preds = %61, %58, %52
  %65 = load ptr, ptr @bio_out, align 8, !tbaa !13
  %66 = getelementptr inbounds nuw %struct.DISPLAY_COLUMNS, ptr %7, i32 0, i32 1
  %67 = load i32, ptr %66, align 4, !tbaa !33
  %68 = load ptr, ptr %5, align 8, !tbaa !17
  %69 = getelementptr inbounds nuw %struct.function_st, ptr %68, i32 0, i32 1
  %70 = load ptr, ptr %69, align 8, !tbaa !19
  %71 = call i32 (ptr, ptr, ...) @BIO_printf(ptr noundef %65, ptr noundef @.str.97, i32 noundef %67, ptr noundef %70)
  %72 = load i32, ptr %6, align 4, !tbaa !4
  %73 = add nsw i32 %72, 1
  store i32 %73, ptr %6, align 4, !tbaa !4
  br label %74

74:                                               ; preds = %64, %46
  br label %75

75:                                               ; preds = %74, %40, %32, %23
  %76 = load ptr, ptr %5, align 8, !tbaa !17
  %77 = getelementptr inbounds nuw %struct.function_st, ptr %76, i32 1
  store ptr %77, ptr %5, align 8, !tbaa !17
  br label %12, !llvm.loop !34

78:                                               ; preds = %12
  %79 = load i32, ptr %4, align 4, !tbaa !4
  %80 = icmp ne i32 %79, 0
  br i1 %80, label %84, label %81

81:                                               ; preds = %78
  %82 = load ptr, ptr @bio_out, align 8, !tbaa !13
  %83 = call i32 (ptr, ptr, ...) @BIO_printf(ptr noundef %82, ptr noundef @.str.98)
  br label %84

84:                                               ; preds = %81, %78
  call void @llvm.lifetime.end.p0(i64 8, ptr %7) #7
  call void @llvm.lifetime.end.p0(i64 4, ptr %6) #7
  call void @llvm.lifetime.end.p0(i64 8, ptr %5) #7
  ret void
}