; Function Attrs: nounwind uwtable
define internal fastcc void @list_type(i32 noundef range(i32 1, 4) %0, i32 noundef range(i32 0, 2) %1) unnamed_addr #0 {
  %3 = alloca %struct.DISPLAY_COLUMNS, align 8
  call void @llvm.lifetime.start.p0(i64 8, ptr nonnull %3) #6
  store i64 0, ptr %3, align 8
  %.not = icmp eq i32 %1, 0
  br i1 %.not, label %4, label %.thread

4:                                                ; preds = %2
  call void @calculate_columns(ptr noundef nonnull @functions, ptr noundef nonnull %3) #6
  %5 = load ptr, ptr getelementptr inbounds nuw (i8, ptr @functions, i64 8), align 8, !tbaa !9
  %.not1837 = icmp eq ptr %5, null
  br i1 %.not1837, label %._crit_edge.thread63, label %.lr.ph.split.us.preheader

.thread:                                          ; preds = %2
  %6 = load ptr, ptr getelementptr inbounds nuw (i8, ptr @functions, i64 8), align 8, !tbaa !9
  %.not183762 = icmp eq ptr %6, null
  br i1 %.not183762, label %._crit_edge.thread, label %.lr.ph.split

.lr.ph.split.us.preheader:                        ; preds = %4
  %7 = getelementptr inbounds nuw i8, ptr %3, i64 4
  br label %.lr.ph.split.us

.lr.ph.split.us:                                  ; preds = %.lr.ph.split.us.preheader, %is_cipher_available.exit.thread.us
  %8 = phi ptr [ %44, %is_cipher_available.exit.thread.us ], [ %5, %.lr.ph.split.us.preheader ]
  %9 = phi ptr [ %43, %is_cipher_available.exit.thread.us ], [ getelementptr inbounds nuw (i8, ptr @functions, i64 8), %.lr.ph.split.us.preheader ]
  %.039.us = phi i32 [ %.1.us, %is_cipher_available.exit.thread.us ], [ 0, %.lr.ph.split.us.preheader ]
  %.01538.us = phi ptr [ %42, %is_cipher_available.exit.thread.us ], [ @functions, %.lr.ph.split.us.preheader ]
  %10 = load i32, ptr %.01538.us, align 8, !tbaa !37
  %.not19.us = icmp eq i32 %10, %0
  br i1 %.not19.us, label %11, label %is_cipher_available.exit.thread.us

11:                                               ; preds = %.lr.ph.split.us
  switch i32 %0, label %28 [
    i32 3, label %20
    i32 2, label %12
  ]

12:                                               ; preds = %11
  %13 = call ptr @app_get0_propq() #6
  %14 = call i32 @ERR_set_mark() #6
  %15 = call ptr @app_get0_libctx() #6
  %16 = call ptr @EVP_MD_fetch(ptr noundef %15, ptr noundef nonnull %8, ptr noundef %13) #6
  %17 = call i32 @ERR_pop_to_mark() #6
  %.not.i22.us = icmp eq ptr %16, null
  br i1 %.not.i22.us, label %18, label %is_md_available.exit.thread32.us

is_md_available.exit.thread32.us:                 ; preds = %12
  call void @EVP_MD_free(ptr noundef nonnull %16) #6
  br label %28

18:                                               ; preds = %12
  %.not7.i24.us = icmp eq ptr %13, null
  br i1 %.not7.i24.us, label %is_md_available.exit.us, label %is_cipher_available.exit.thread.us

is_md_available.exit.us:                          ; preds = %18
  %19 = call ptr @get_digest_from_engine(ptr noundef nonnull %8) #6
  %.not35.us = icmp eq ptr %19, null
  br i1 %.not35.us, label %is_cipher_available.exit.thread.us, label %28

20:                                               ; preds = %11
  %21 = call ptr @app_get0_propq() #6
  %22 = call i32 @ERR_set_mark() #6
  %23 = call ptr @app_get0_libctx() #6
  %24 = call ptr @EVP_CIPHER_fetch(ptr noundef %23, ptr noundef nonnull %8, ptr noundef %21) #6
  %25 = call i32 @ERR_pop_to_mark() #6
  %.not.i.us = icmp eq ptr %24, null
  br i1 %.not.i.us, label %26, label %is_cipher_available.exit.thread27.us

is_cipher_available.exit.thread27.us:             ; preds = %20
  call void @EVP_CIPHER_free(ptr noundef nonnull %24) #6
  br label %28

26:                                               ; preds = %20
  %.not7.i.us = icmp eq ptr %21, null
  br i1 %.not7.i.us, label %is_cipher_available.exit.us, label %is_cipher_available.exit.thread.us

is_cipher_available.exit.us:                      ; preds = %26
  %27 = call ptr @get_cipher_from_engine(ptr noundef nonnull %8) #6
  %.not36.us = icmp eq ptr %27, null
  br i1 %.not36.us, label %is_cipher_available.exit.thread.us, label %28

28:                                               ; preds = %is_cipher_available.exit.us, %is_cipher_available.exit.thread27.us, %is_md_available.exit.us, %is_md_available.exit.thread32.us, %11
  %29 = load i32, ptr %3, align 8, !tbaa !38
  %30 = srem i32 %.039.us, %29
  %31 = icmp eq i32 %30, 0
  %32 = icmp sgt i32 %.039.us, 0
  %or.cond.us = and i1 %32, %31
  br i1 %or.cond.us, label %33, label %36

33:                                               ; preds = %28
  %34 = load ptr, ptr @bio_out, align 8, !tbaa !4
  %35 = call i32 (ptr, ptr, ...) @BIO_printf(ptr noundef %34, ptr noundef nonnull @.str.83) #6
  br label %36

36:                                               ; preds = %33, %28
  %37 = load ptr, ptr @bio_out, align 8, !tbaa !4
  %38 = load i32, ptr %7, align 4, !tbaa !40
  %39 = load ptr, ptr %9, align 8, !tbaa !9
  %40 = call i32 (ptr, ptr, ...) @BIO_printf(ptr noundef %37, ptr noundef nonnull @.str.97, i32 noundef %38, ptr noundef %39) #6
  %41 = add nsw i32 %.039.us, 1
  br label %is_cipher_available.exit.thread.us

is_cipher_available.exit.thread.us:               ; preds = %36, %is_cipher_available.exit.us, %26, %is_md_available.exit.us, %18, %.lr.ph.split.us
  %.1.us = phi i32 [ %.039.us, %.lr.ph.split.us ], [ %41, %36 ], [ %.039.us, %is_md_available.exit.us ], [ %.039.us, %is_cipher_available.exit.us ], [ %.039.us, %26 ], [ %.039.us, %18 ]
  %42 = getelementptr inbounds nuw i8, ptr %.01538.us, i64 48
  %43 = getelementptr inbounds nuw i8, ptr %.01538.us, i64 56
  %44 = load ptr, ptr %43, align 8, !tbaa !9
  %.not18.us = icmp eq ptr %44, null
  br i1 %.not18.us, label %._crit_edge, label %.lr.ph.split.us, !llvm.loop !41

.lr.ph.split:                                     ; preds = %.thread
  switch i32 %0, label %.lr.ph.split.split [
    i32 3, label %.lr.ph.split.split.us
    i32 2, label %.lr.ph.split.split.us49
  ]

.lr.ph.split.split.us:                            ; preds = %.lr.ph.split, %is_cipher_available.exit.thread.us47
  %45 = phi ptr [ %62, %is_cipher_available.exit.thread.us47 ], [ %6, %.lr.ph.split ]
  %46 = phi ptr [ %61, %is_cipher_available.exit.thread.us47 ], [ getelementptr inbounds nuw (i8, ptr @functions, i64 8), %.lr.ph.split ]
  %.01538.us40 = phi ptr [ %60, %is_cipher_available.exit.thread.us47 ], [ @functions, %.lr.ph.split ]
  %47 = load i32, ptr %.01538.us40, align 8, !tbaa !37
  %.not19.us41 = icmp eq i32 %47, 3
  br i1 %.not19.us41, label %48, label %is_cipher_available.exit.thread.us47

48:                                               ; preds = %.lr.ph.split.split.us
  %49 = tail call ptr @app_get0_propq() #6
  %50 = tail call i32 @ERR_set_mark() #6
  %51 = tail call ptr @app_get0_libctx() #6
  %52 = tail call ptr @EVP_CIPHER_fetch(ptr noundef %51, ptr noundef nonnull %45, ptr noundef %49) #6
  %53 = tail call i32 @ERR_pop_to_mark() #6
  %.not.i.us42 = icmp eq ptr %52, null
  br i1 %.not.i.us42, label %54, label %is_cipher_available.exit.thread27.us43

is_cipher_available.exit.thread27.us43:           ; preds = %48
  tail call void @EVP_CIPHER_free(ptr noundef nonnull %52) #6
  br label %56

54:                                               ; preds = %48
  %.not7.i.us44 = icmp eq ptr %49, null
  br i1 %.not7.i.us44, label %is_cipher_available.exit.us45, label %is_cipher_available.exit.thread.us47

is_cipher_available.exit.us45:                    ; preds = %54
  %55 = tail call ptr @get_cipher_from_engine(ptr noundef nonnull %45) #6
  %.not36.us46 = icmp eq ptr %55, null
  br i1 %.not36.us46, label %is_cipher_available.exit.thread.us47, label %56

56:                                               ; preds = %is_cipher_available.exit.us45, %is_cipher_available.exit.thread27.us43
  %57 = load ptr, ptr @bio_out, align 8, !tbaa !4
  %58 = load ptr, ptr %46, align 8, !tbaa !9
  %59 = tail call i32 (ptr, ptr, ...) @BIO_printf(ptr noundef %57, ptr noundef nonnull @.str.96, ptr noundef %58) #6
  br label %is_cipher_available.exit.thread.us47

is_cipher_available.exit.thread.us47:             ; preds = %56, %is_cipher_available.exit.us45, %54, %.lr.ph.split.split.us
  %60 = getelementptr inbounds nuw i8, ptr %.01538.us40, i64 48
  %61 = getelementptr inbounds nuw i8, ptr %.01538.us40, i64 56
  %62 = load ptr, ptr %61, align 8, !tbaa !9
  %.not18.us48 = icmp eq ptr %62, null
  br i1 %.not18.us48, label %._crit_edge, label %.lr.ph.split.split.us, !llvm.loop !41

.lr.ph.split.split.us49:                          ; preds = %.lr.ph.split, %is_cipher_available.exit.thread.us57
  %63 = phi ptr [ %80, %is_cipher_available.exit.thread.us57 ], [ %6, %.lr.ph.split ]
  %64 = phi ptr [ %79, %is_cipher_available.exit.thread.us57 ], [ getelementptr inbounds nuw (i8, ptr @functions, i64 8), %.lr.ph.split ]
  %.01538.us50 = phi ptr [ %78, %is_cipher_available.exit.thread.us57 ], [ @functions, %.lr.ph.split ]
  %65 = load i32, ptr %.01538.us50, align 8, !tbaa !37
  %.not19.us51 = icmp eq i32 %65, 2
  br i1 %.not19.us51, label %66, label %is_cipher_available.exit.thread.us57

66:                                               ; preds = %.lr.ph.split.split.us49
  %67 = tail call ptr @app_get0_propq() #6
  %68 = tail call i32 @ERR_set_mark() #6
  %69 = tail call ptr @app_get0_libctx() #6
  %70 = tail call ptr @EVP_MD_fetch(ptr noundef %69, ptr noundef nonnull %63, ptr noundef %67) #6
  %71 = tail call i32 @ERR_pop_to_mark() #6
  %.not.i22.us52 = icmp eq ptr %70, null
  br i1 %.not.i22.us52, label %72, label %is_md_available.exit.thread32.us53

is_md_available.exit.thread32.us53:               ; preds = %66
  tail call void @EVP_MD_free(ptr noundef nonnull %70) #6
  br label %74

72:                                               ; preds = %66
  %.not7.i24.us54 = icmp eq ptr %67, null
  br i1 %.not7.i24.us54, label %is_md_available.exit.us55, label %is_cipher_available.exit.thread.us57

is_md_available.exit.us55:                        ; preds = %72
  %73 = tail call ptr @get_digest_from_engine(ptr noundef nonnull %63) #6
  %.not35.us56 = icmp eq ptr %73, null
  br i1 %.not35.us56, label %is_cipher_available.exit.thread.us57, label %74

74:                                               ; preds = %is_md_available.exit.us55, %is_md_available.exit.thread32.us53
  %75 = load ptr, ptr @bio_out, align 8, !tbaa !4
  %76 = load ptr, ptr %64, align 8, !tbaa !9
  %77 = tail call i32 (ptr, ptr, ...) @BIO_printf(ptr noundef %75, ptr noundef nonnull @.str.96, ptr noundef %76) #6
  br label %is_cipher_available.exit.thread.us57

is_cipher_available.exit.thread.us57:             ; preds = %74, %is_md_available.exit.us55, %72, %.lr.ph.split.split.us49
  %78 = getelementptr inbounds nuw i8, ptr %.01538.us50, i64 48
  %79 = getelementptr inbounds nuw i8, ptr %.01538.us50, i64 56
  %80 = load ptr, ptr %79, align 8, !tbaa !9
  %.not18.us58 = icmp eq ptr %80, null
  br i1 %.not18.us58, label %._crit_edge, label %.lr.ph.split.split.us49, !llvm.loop !41

.lr.ph.split.split:                               ; preds = %.lr.ph.split, %is_cipher_available.exit.thread
  %81 = phi ptr [ %88, %is_cipher_available.exit.thread ], [ %6, %.lr.ph.split ]
  %.01538 = phi ptr [ %86, %is_cipher_available.exit.thread ], [ @functions, %.lr.ph.split ]
  %82 = load i32, ptr %.01538, align 8, !tbaa !37
  %.not19 = icmp eq i32 %82, %0
  br i1 %.not19, label %83, label %is_cipher_available.exit.thread

83:                                               ; preds = %.lr.ph.split.split
  %84 = load ptr, ptr @bio_out, align 8, !tbaa !4
  %85 = tail call i32 (ptr, ptr, ...) @BIO_printf(ptr noundef %84, ptr noundef nonnull @.str.96, ptr noundef nonnull %81) #6
  br label %is_cipher_available.exit.thread

is_cipher_available.exit.thread:                  ; preds = %83, %.lr.ph.split.split
  %86 = getelementptr inbounds nuw i8, ptr %.01538, i64 48
  %87 = getelementptr inbounds nuw i8, ptr %.01538, i64 56
  %88 = load ptr, ptr %87, align 8, !tbaa !9
  %.not18 = icmp eq ptr %88, null
  br i1 %.not18, label %._crit_edge, label %.lr.ph.split.split, !llvm.loop !41

._crit_edge:                                      ; preds = %is_cipher_available.exit.thread.us57, %is_cipher_available.exit.thread.us47, %is_cipher_available.exit.thread, %is_cipher_available.exit.thread.us
  br i1 %.not, label %._crit_edge.thread63, label %._crit_edge.thread

._crit_edge.thread63:                             ; preds = %4, %._crit_edge
  %89 = load ptr, ptr @bio_out, align 8, !tbaa !4
  %90 = call i32 (ptr, ptr, ...) @BIO_printf(ptr noundef %89, ptr noundef nonnull @.str.98) #6
  br label %._crit_edge.thread

._crit_edge.thread:                               ; preds = %.thread, %._crit_edge.thread63, %._crit_edge
  call void @llvm.lifetime.end.p0(i64 8, ptr nonnull %3) #6
  ret void
}